target datalayout = "e-m:e-p270:32:32-p271:32:32-p272:64:64-i64:64-i128:128-f80:128-n8:16:32:64-S128"
target triple = "x86_64-pc-linux-gnu"

%struct.UPropsVectors = type { ptr, i32, i32, i32, i32, i8 }

; Function Attrs: mustprogress nounwind uwtable
define internal noundef ptr @_ZL8_findRowP13UPropsVectorsi(ptr noundef %0, i32 noundef %1) #6 {
  %3 = alloca ptr, align 8
  %4 = alloca ptr, align 8
  %5 = alloca i32, align 4
  %6 = alloca ptr, align 8
  %7 = alloca i32, align 4
  %8 = alloca i32, align 4
  %9 = alloca i32, align 4
  %10 = alloca i32, align 4
  %11 = alloca i32, align 4
  %12 = alloca i32, align 4
  store ptr %0, ptr %4, align 8, !tbaa !11
  store i32 %1, ptr %5, align 4, !tbaa !3
  call void @llvm.lifetime.start.p0(i64 8, ptr %6) #9
  call void @llvm.lifetime.start.p0(i64 4, ptr %7) #9
  call void @llvm.lifetime.start.p0(i64 4, ptr %8) #9
  call void @llvm.lifetime.start.p0(i64 4, ptr %9) #9
  call void @llvm.lifetime.start.p0(i64 4, ptr %10) #9
  call void @llvm.lifetime.start.p0(i64 4, ptr %11) #9
  %13 = load ptr, ptr %4, align 8, !tbaa !11
  %14 = getelementptr inbounds nuw %struct.UPropsVectors, ptr %13, i32 0, i32 1
  %15 = load i32, ptr %14, align 8, !tbaa !17
  store i32 %15, ptr %7, align 4, !tbaa !3
  %16 = load ptr, ptr %4, align 8, !tbaa !11
  %17 = getelementptr inbounds nuw %struct.UPropsVectors, ptr %16, i32 0, i32 3
  %18 = load i32, ptr %17, align 8, !tbaa !19
  store i32 %18, ptr %10, align 4, !tbaa !3
  %19 = load ptr, ptr %4, align 8, !tbaa !11
  %20 = getelementptr inbounds nuw %struct.UPropsVectors, ptr %19, i32 0, i32 4
  %21 = load i32, ptr %20, align 4, !tbaa !24
  store i32 %21, ptr %11, align 4, !tbaa !3
  %22 = load ptr, ptr %4, align 8, !tbaa !11
  %23 = getelementptr inbounds nuw %struct.UPropsVectors, ptr %22, i32 0, i32 0
  %24 = load ptr, ptr %23, align 8, !tbaa !15
  %25 = load i32, ptr %11, align 4, !tbaa !3
  %26 = load i32, ptr %7, align 4, !tbaa !3
  %27 = mul nsw i32 %25, %26
  %28 = sext i32 %27 to i64
  %29 = getelementptr inbounds i32, ptr %24, i64 %28
  store ptr %29, ptr %6, align 8, !tbaa !13
  %30 = load i32, ptr %5, align 4, !tbaa !3
  %31 = load ptr, ptr %6, align 8, !tbaa !13
  %32 = getelementptr inbounds i32, ptr %31, i64 0
  %33 = load i32, ptr %32, align 4, !tbaa !3
  %34 = icmp sge i32 %30, %33
  br i1 %34, label %35, label %105

35:                                               ; preds = %2
  %36 = load i32, ptr %5, align 4, !tbaa !3
  %37 = load ptr, ptr %6, align 8, !tbaa !13
  %38 = getelementptr inbounds i32, ptr %37, i64 1
  %39 = load i32, ptr %38, align 4, !tbaa !3
  %40 = icmp slt i32 %36, %39
  br i1 %40, label %41, label %43

41:                                               ; preds = %35
  %42 = load ptr, ptr %6, align 8, !tbaa !13
  store ptr %42, ptr %3, align 8
  store i32 1, ptr %12, align 4
  br label %173

43:                                               ; preds = %35
  %44 = load i32, ptr %5, align 4, !tbaa !3
  %45 = load i32, ptr %7, align 4, !tbaa !3
  %46 = load ptr, ptr %6, align 8, !tbaa !13
  %47 = sext i32 %45 to i64
  %48 = getelementptr inbounds i32, ptr %46, i64 %47
  store ptr %48, ptr %6, align 8, !tbaa !13
  %49 = getelementptr inbounds i32, ptr %48, i64 1
  %50 = load i32, ptr %49, align 4, !tbaa !3
  %51 = icmp slt i32 %44, %50
  br i1 %51, label %52, label %58

52:                                               ; preds = %43
  %53 = load i32, ptr %11, align 4, !tbaa !3
  %54 = add nsw i32 %53, 1
  %55 = load ptr, ptr %4, align 8, !tbaa !11
  %56 = getelementptr inbounds nuw %struct.UPropsVectors, ptr %55, i32 0, i32 4
  store i32 %54, ptr %56, align 4, !tbaa !24
  %57 = load ptr, ptr %6, align 8, !tbaa !13
  store ptr %57, ptr %3, align 8
  store i32 1, ptr %12, align 4
  br label %173

58:                                               ; preds = %43
  %59 = load i32, ptr %5, align 4, !tbaa !3
  %60 = load i32, ptr %7, align 4, !tbaa !3
  %61 = load ptr, ptr %6, align 8, !tbaa !13
  %62 = sext i32 %60 to i64
  %63 = getelementptr inbounds i32, ptr %61, i64 %62
  store ptr %63, ptr %6, align 8, !tbaa !13
  %64 = getelementptr inbounds i32, ptr %63, i64 1
  %65 = load i32, ptr %64, align 4, !tbaa !3
  %66 = icmp slt i32 %59, %65
  br i1 %66, label %67, label %73

67:                                               ; preds = %58
  %68 = load i32, ptr %11, align 4, !tbaa !3
  %69 = add nsw i32 %68, 2
  %70 = load ptr, ptr %4, align 8, !tbaa !11
  %71 = getelementptr inbounds nuw %struct.UPropsVectors, ptr %70, i32 0, i32 4
  store i32 %69, ptr %71, align 4, !tbaa !24
  %72 = load ptr, ptr %6, align 8, !tbaa !13
  store ptr %72, ptr %3, align 8
  store i32 1, ptr %12, align 4
  br label %173

73:                                               ; preds = %58
  %74 = load i32, ptr %5, align 4, !tbaa !3
  %75 = load ptr, ptr %6, align 8, !tbaa !13
  %76 = getelementptr inbounds i32, ptr %75, i64 1
  %77 = load i32, ptr %76, align 4, !tbaa !3
  %78 = sub nsw i32 %74, %77
  %79 = icmp slt i32 %78, 10
  br i1 %79, label %80, label %101

80:                                               ; preds = %73
  %81 = load i32, ptr %11, align 4, !tbaa !3
  %82 = add nsw i32 %81, 2
  store i32 %82, ptr %11, align 4, !tbaa !3
  br label %83

83:                                               ; preds = %90, %80
  %84 = load i32, ptr %11, align 4, !tbaa !3
  %85 = add nsw i32 %84, 1
  store i32 %85, ptr %11, align 4, !tbaa !3
  %86 = load i32, ptr %7, align 4, !tbaa !3
  %87 = load ptr, ptr %6, align 8, !tbaa !13
  %88 = sext i32 %86 to i64
  %89 = getelementptr inbounds i32, ptr %87, i64 %88
  store ptr %89, ptr %6, align 8, !tbaa !13
  br label %90

90:                                               ; preds = %83
  %91 = load i32, ptr %5, align 4, !tbaa !3
  %92 = load ptr, ptr %6, align 8, !tbaa !13
  %93 = getelementptr inbounds i32, ptr %92, i64 1
  %94 = load i32, ptr %93, align 4, !tbaa !3
  %95 = icmp sge i32 %91, %94
  br i1 %95, label %83, label %96, !llvm.loop !26

96:                                               ; preds = %90
  %97 = load i32, ptr %11, align 4, !tbaa !3
  %98 = load ptr, ptr %4, align 8, !tbaa !11
  %99 = getelementptr inbounds nuw %struct.UPropsVectors, ptr %98, i32 0, i32 4
  store i32 %97, ptr %99, align 4, !tbaa !24
  %100 = load ptr, ptr %6, align 8, !tbaa !13
  store ptr %100, ptr %3, align 8
  store i32 1, ptr %12, align 4
  br label %173

101:                                              ; preds = %73
  br label %102

102:                                              ; preds = %101
  br label %103

103:                                              ; preds = %102
  br label %104

104:                                              ; preds = %103
  br label %120

105:                                              ; preds = %2
  %106 = load i32, ptr %5, align 4, !tbaa !3
  %107 = load ptr, ptr %4, align 8, !tbaa !11
  %108 = getelementptr inbounds nuw %struct.UPropsVectors, ptr %107, i32 0, i32 0
  %109 = load ptr, ptr %108, align 8, !tbaa !15
  %110 = getelementptr inbounds i32, ptr %109, i64 1
  %111 = load i32, ptr %110, align 4, !tbaa !3
  %112 = icmp slt i32 %106, %111
  br i1 %112, label %113, label %119

113:                                              ; preds = %105
  %114 = load ptr, ptr %4, align 8, !tbaa !11
  %115 = getelementptr inbounds nuw %struct.UPropsVectors, ptr %114, i32 0, i32 4
  store i32 0, ptr %115, align 4, !tbaa !24
  %116 = load ptr, ptr %4, align 8, !tbaa !11
  %117 = getelementptr inbounds nuw %struct.UPropsVectors, ptr %116, i32 0, i32 0
  %118 = load ptr, ptr %117, align 8, !tbaa !15
  store ptr %118, ptr %3, align 8
  store i32 1, ptr %12, align 4
  br label %173

119:                                              ; preds = %105
  br label %120

120:                                              ; preds = %119, %104
  store i32 0, ptr %9, align 4, !tbaa !3
  br label %121

121:                                              ; preds = %160, %120
  %122 = load i32, ptr %9, align 4, !tbaa !3
  %123 = load i32, ptr %10, align 4, !tbaa !3
  %124 = sub nsw i32 %123, 1
  %125 = icmp slt i32 %122, %124
  br i1 %125, label %126, label %161

126:                                              ; preds = %121
  %127 = load i32, ptr %9, align 4, !tbaa !3
  %128 = load i32, ptr %10, align 4, !tbaa !3
  %129 = add nsw i32 %127, %128
  %130 = sdiv i32 %129, 2
  store i32 %130, ptr %8, align 4, !tbaa !3
  %131 = load ptr, ptr %4, align 8, !tbaa !11
  %132 = getelementptr inbounds nuw %struct.UPropsVectors, ptr %131, i32 0, i32 0
  %133 = load ptr, ptr %132, align 8, !tbaa !15
  %134 = load i32, ptr %8, align 4, !tbaa !3
  %135 = load i32, ptr %7, align 4, !tbaa !3
  %136 = mul nsw i32 %134, %135
  %137 = sext i32 %136 to i64
  %138 = getelementptr inbounds i32, ptr %133, i64 %137
  store ptr %138, ptr %6, align 8, !tbaa !13
  %139 = load i32, ptr %5, align 4, !tbaa !3
  %140 = load ptr, ptr %6, align 8, !tbaa !13
  %141 = getelementptr inbounds i32, ptr %140, i64 0
  %142 = load i32, ptr %141, align 4, !tbaa !3
  %143 = icmp slt i32 %139, %142
  br i1 %143, label %144, label %146

144:                                              ; preds = %126
  %145 = load i32, ptr %8, align 4, !tbaa !3
  store i32 %145, ptr %10, align 4, !tbaa !3
  br label %160

146:                                              ; preds = %126
  %147 = load i32, ptr %5, align 4, !tbaa !3
  %148 = load ptr, ptr %6, align 8, !tbaa !13
  %149 = getelementptr inbounds i32, ptr %148, i64 1
  %150 = load i32, ptr %149, align 4, !tbaa !3
  %151 = icmp slt i32 %147, %150
  br i1 %151, label %152, label %157

152:                                              ; preds = %146
  %153 = load i32, ptr %8, align 4, !tbaa !3
  %154 = load ptr, ptr %4, align 8, !tbaa !11
  %155 = getelementptr inbounds nuw %struct.UPropsVectors, ptr %154, i32 0, i32 4
  store i32 %153, ptr %155, align 4, !tbaa !24
  %156 = load ptr, ptr %6, align 8, !tbaa !13
  store ptr %156, ptr %3, align 8
  store i32 1, ptr %12, align 4
  br label %173

157:                                              ; preds = %146
  %158 = load i32, ptr %8, align 4, !tbaa !3
  store i32 %158, ptr %9, align 4, !tbaa !3
  br label %159

159:                                              ; preds = %157
  br label %160

160:                                              ; preds = %159, %144
  br label %121, !llvm.loop !27

161:                                              ; preds = %121
  %162 = load i32, ptr %9, align 4, !tbaa !3
  %163 = load ptr, ptr %4, align 8, !tbaa !11
  %164 = getelementptr inbounds nuw %struct.UPropsVectors, ptr %163, i32 0, i32 4
  store i32 %162, ptr %164, align 4, !tbaa !24
  %165 = load ptr, ptr %4, align 8, !tbaa !11
  %166 = getelementptr inbounds nuw %struct.UPropsVectors, ptr %165, i32 0, i32 0
  %167 = load ptr, ptr %166, align 8, !tbaa !15
  %168 = load i32, ptr %9, align 4, !tbaa !3
  %169 = load i32, ptr %7, align 4, !tbaa !3
  %170 = mul nsw i32 %168, %169
  %171 = sext i32 %170 to i64
  %172 = getelementptr inbounds i32, ptr %167, i64 %171
  store ptr %172, ptr %3, align 8
  store i32 1, ptr %12, align 4
  br label %173

173:                                              ; preds = %161, %152, %113, %96, %67, %52, %41
  call void @llvm.lifetime.end.p0(i64 4, ptr %11) #9
  call void @llvm.lifetime.end.p0(i64 4, ptr %10) #9
  call void @llvm.lifetime.end.p0(i64 4, ptr %9) #9
  call void @llvm.lifetime.end.p0(i64 4, ptr %8) #9
  call void @llvm.lifetime.end.p0(i64 4, ptr %7) #9
  call void @llvm.lifetime.end.p0(i64 8, ptr %6) #9
  %174 = load ptr, ptr %3, align 8
  ret ptr %174
}

; Function Attrs: mustprogress uwtable
define i32 @upvec_getValue_77(ptr noundef %0, i32 noundef %1, i32 noundef %2) #0 {
  %4 = alloca i32, align 4
  %5 = alloca ptr, align 8
  %6 = alloca i32, align 4
  %7 = alloca i32, align 4
  %8 = alloca ptr, align 8
  %9 = alloca ptr, align 8
  %10 = alloca i32, align 4
  store ptr %0, ptr %5, align 8, !tbaa !11
  store i32 %1, ptr %6, align 4, !tbaa !3
  store i32 %2, ptr %7, align 4, !tbaa !3
  call void @llvm.lifetime.start.p0(i64 8, ptr %8) #9
  call void @llvm.lifetime.start.p0(i64 8, ptr %9) #9
  %11 = load ptr, ptr %5, align 8, !tbaa !11
  %12 = getelementptr inbounds nuw %struct.UPropsVectors, ptr %11, i32 0, i32 5
  %13 = load i8, ptr %12, align 8, !tbaa !22
  %14 = icmp ne i8 %13, 0
  br i1 %14, label %31, label %15

15:                                               ; preds = %3
  %16 = load i32, ptr %6, align 4, !tbaa !3
  %17 = icmp slt i32 %16, 0
  br i1 %17, label %31, label %18

18:                                               ; preds = %15
  %19 = load i32, ptr %6, align 4, !tbaa !3
  %20 = icmp sgt i32 %19, 1114113
  br i1 %20, label %31, label %21

21:                                               ; preds = %18
  %22 = load i32, ptr %7, align 4, !tbaa !3
  %23 = icmp slt i32 %22, 0
  br i1 %23, label %31, label %24

24:                                               ; preds = %21
  %25 = load i32, ptr %7, align 4, !tbaa !3
  %26 = load ptr, ptr %5, align 8, !tbaa !11
  %27 = getelementptr inbounds nuw %struct.UPropsVectors, ptr %26, i32 0, i32 1
  %28 = load i32, ptr %27, align 8, !tbaa !17
  %29 = sub nsw i32 %28, 2
  %30 = icmp sge i32 %25, %29
  br i1 %30, label %31, label %32

31:                                               ; preds = %24, %21, %18, %15, %3
  store i32 0, ptr %4, align 4
  store i32 1, ptr %10, align 4
  br label %43

32:                                               ; preds = %24
  %33 = load ptr, ptr %5, align 8, !tbaa !11
  store ptr %33, ptr %9, align 8, !tbaa !11
  %34 = load ptr, ptr %9, align 8, !tbaa !11
  %35 = load i32, ptr %6, align 4, !tbaa !3
  %36 = call noundef ptr @_ZL8_findRowP13UPropsVectorsi(ptr noundef %34, i32 noundef %35)
  store ptr %36, ptr %8, align 8, !tbaa !13
  %37 = load ptr, ptr %8, align 8, !tbaa !13
  %38 = load i32, ptr %7, align 4, !tbaa !3
  %39 = add nsw i32 2, %38
  %40 = sext i32 %39 to i64
  %41 = getelementptr inbounds i32, ptr %37, i64 %40
  %42 = load i32, ptr %41, align 4, !tbaa !3
  store i32 %42, ptr %4, align 4
  store i32 1, ptr %10, align 4
  br label %43

43:                                               ; preds = %32, %31
  call void @llvm.lifetime.end.p0(i64 8, ptr %9) #9
  call void @llvm.lifetime.end.p0(i64 8, ptr %8) #9
  %44 = load i32, ptr %4, align 4
  ret i32 %44
}