; Function Attrs: mustprogress nofree norecurse nosync nounwind memory(read, argmem: readwrite, inaccessiblemem: none) uwtable
define i32 @upvec_getValue_77(ptr noundef captures(none) %0, i32 noundef %1, i32 noundef %2) local_unnamed_addr #5 {
  %4 = getelementptr inbounds nuw i8, ptr %0, i64 24
  %5 = load i8, ptr %4, align 8, !tbaa !18
  %6 = icmp ne i8 %5, 0
  %7 = icmp ugt i32 %1, 1114113
  %or.cond3 = or i1 %7, %6
  %8 = icmp slt i32 %2, 0
  %or.cond5 = or i1 %8, %or.cond3
  br i1 %or.cond5, label %82, label %9

9:                                                ; preds = %3
  %10 = getelementptr inbounds nuw i8, ptr %0, i64 8
  %11 = load i32, ptr %10, align 8, !tbaa !12
  %12 = add nsw i32 %11, -2
  %.not = icmp slt i32 %2, %12
  br i1 %.not, label %13, label %82

13:                                               ; preds = %9
  %14 = getelementptr inbounds nuw i8, ptr %0, i64 16
  %15 = load i32, ptr %14, align 8, !tbaa !14
  %16 = getelementptr inbounds nuw i8, ptr %0, i64 20
  %17 = load i32, ptr %16, align 4, !tbaa !19
  %18 = load ptr, ptr %0, align 8, !tbaa !7
  %19 = mul nsw i32 %17, %11
  %20 = sext i32 %19 to i64
  %21 = getelementptr inbounds i32, ptr %18, i64 %20
  %22 = load i32, ptr %21, align 4, !tbaa !15
  %.not.i = icmp slt i32 %1, %22
  br i1 %.not.i, label %53, label %23

23:                                               ; preds = %13
  %24 = getelementptr inbounds nuw i8, ptr %21, i64 4
  %25 = load i32, ptr %24, align 4, !tbaa !15
  %26 = icmp slt i32 %1, %25
  br i1 %26, label %_ZL8_findRowP13UPropsVectorsi.exit, label %27

27:                                               ; preds = %23
  %28 = sext i32 %11 to i64
  %29 = getelementptr inbounds i32, ptr %21, i64 %28
  %30 = getelementptr inbounds nuw i8, ptr %29, i64 4
  %31 = load i32, ptr %30, align 4, !tbaa !15
  %32 = icmp slt i32 %1, %31
  br i1 %32, label %33, label %35

33:                                               ; preds = %27
  %34 = add nsw i32 %17, 1
  store i32 %34, ptr %16, align 4, !tbaa !19
  br label %_ZL8_findRowP13UPropsVectorsi.exit

35:                                               ; preds = %27
  %36 = getelementptr inbounds i32, ptr %29, i64 %28
  %37 = getelementptr inbounds nuw i8, ptr %36, i64 4
  %38 = load i32, ptr %37, align 4, !tbaa !15
  %39 = icmp slt i32 %1, %38
  br i1 %39, label %40, label %42

40:                                               ; preds = %35
  %41 = add nsw i32 %17, 2
  store i32 %41, ptr %16, align 4, !tbaa !19
  br label %_ZL8_findRowP13UPropsVectorsi.exit

42:                                               ; preds = %35
  %43 = sub nsw i32 %1, %38
  %44 = icmp slt i32 %43, 10
  br i1 %44, label %45, label %58

45:                                               ; preds = %42
  %46 = add nsw i32 %17, 2
  br label %47

47:                                               ; preds = %47, %45
  %.063.i = phi ptr [ %36, %45 ], [ %49, %47 ]
  %.0.i = phi i32 [ %46, %45 ], [ %48, %47 ]
  %48 = add nsw i32 %.0.i, 1
  %49 = getelementptr inbounds i32, ptr %.063.i, i64 %28
  %50 = getelementptr inbounds nuw i8, ptr %49, i64 4
  %51 = load i32, ptr %50, align 4, !tbaa !15
  %.not66.i = icmp slt i32 %1, %51
  br i1 %.not66.i, label %52, label %47, !llvm.loop !21

52:                                               ; preds = %47
  store i32 %48, ptr %16, align 4, !tbaa !19
  br label %_ZL8_findRowP13UPropsVectorsi.exit

53:                                               ; preds = %13
  %54 = getelementptr inbounds nuw i8, ptr %18, i64 4
  %55 = load i32, ptr %54, align 4, !tbaa !15
  %56 = icmp slt i32 %1, %55
  br i1 %56, label %57, label %58

57:                                               ; preds = %53
  store i32 0, ptr %16, align 4, !tbaa !19
  br label %_ZL8_findRowP13UPropsVectorsi.exit

58:                                               ; preds = %53, %42
  %59 = icmp sgt i32 %15, 1
  br i1 %59, label %.lr.ph.i, label %._crit_edge.i

.lr.ph.i:                                         ; preds = %58, %72
  %.05972.i = phi i32 [ %.1.i, %72 ], [ %15, %58 ]
  %.06071.i = phi i32 [ %.161.i, %72 ], [ 0, %58 ]
  %60 = add nsw i32 %.06071.i, %.05972.i
  %61 = sdiv i32 %60, 2
  %62 = mul nsw i32 %61, %11
  %63 = sext i32 %62 to i64
  %64 = getelementptr inbounds i32, ptr %18, i64 %63
  %65 = load i32, ptr %64, align 4, !tbaa !15
  %66 = icmp slt i32 %1, %65
  br i1 %66, label %72, label %67

67:                                               ; preds = %.lr.ph.i
  %68 = getelementptr inbounds nuw i8, ptr %64, i64 4
  %69 = load i32, ptr %68, align 4, !tbaa !15
  %70 = icmp slt i32 %1, %69
  br i1 %70, label %71, label %72

71:                                               ; preds = %67
  store i32 %61, ptr %16, align 4, !tbaa !19
  br label %_ZL8_findRowP13UPropsVectorsi.exit

72:                                               ; preds = %67, %.lr.ph.i
  %.161.i = phi i32 [ %.06071.i, %.lr.ph.i ], [ %61, %67 ]
  %.1.i = phi i32 [ %61, %.lr.ph.i ], [ %.05972.i, %67 ]
  %73 = add nsw i32 %.1.i, -1
  %74 = icmp slt i32 %.161.i, %73
  br i1 %74, label %.lr.ph.i, label %._crit_edge.i, !llvm.loop !22

._crit_edge.i:                                    ; preds = %72, %58
  %.060.lcssa.i = phi i32 [ 0, %58 ], [ %.161.i, %72 ]
  store i32 %.060.lcssa.i, ptr %16, align 4, !tbaa !19
  %75 = mul nsw i32 %.060.lcssa.i, %11
  %76 = sext i32 %75 to i64
  %77 = getelementptr inbounds i32, ptr %18, i64 %76
  br label %_ZL8_findRowP13UPropsVectorsi.exit

_ZL8_findRowP13UPropsVectorsi.exit:               ; preds = %23, %33, %40, %52, %57, %71, %._crit_edge.i
  %.062.i = phi ptr [ %29, %33 ], [ %36, %40 ], [ %49, %52 ], [ %64, %71 ], [ %77, %._crit_edge.i ], [ %18, %57 ], [ %21, %23 ]
  %78 = zext nneg i32 %2 to i64
  %79 = getelementptr inbounds nuw i32, ptr %.062.i, i64 %78
  %80 = getelementptr inbounds nuw i8, ptr %79, i64 8
  %81 = load i32, ptr %80, align 4, !tbaa !15
  br label %82

82:                                               ; preds = %3, %9, %_ZL8_findRowP13UPropsVectorsi.exit
  %.0 = phi i32 [ %81, %_ZL8_findRowP13UPropsVectorsi.exit ], [ 0, %9 ], [ 0, %3 ]
  ret i32 %.0
}